target datalayout = "e-m:e-p270:32:32-p271:32:32-p272:64:64-i64:64-i128:128-f80:128-n8:16:32:64-S128"
target triple = "x86_64-pc-linux-gnu"

@.str.4 = private unnamed_addr constant [2 x i8] c"\0A\00", align 1
@.str.5 = private unnamed_addr constant [42 x i8] c"    keep_hierarchy [options] [selection]\0A\00", align 1
@.str.6 = private unnamed_addr constant [35 x i8] c"Add the keep_hierarchy attribute.\0A\00", align 1
@.str.7 = private unnamed_addr constant [26 x i8] c"    -min_cost <min_cost>\0A\00", align 1
@.str.8 = private unnamed_addr constant [82 x i8] c"        only add the attribute to modules estimated to have more than <min_cost>\0A\00", align 1
@.str.9 = private unnamed_addr constant [80 x i8] c"        gates after simple techmapping. Intended for tuning trade-offs between\0A\00", align 1
@.str.10 = private unnamed_addr constant [36 x i8] c"        quality and yosys runtime.\0A\00", align 1
@.str.11 = private unnamed_addr constant [77 x i8] c"        When evaluating a module's cost, gates which are within a submodule\0A\00", align 1
@.str.12 = private unnamed_addr constant [75 x i8] c"        which is marked with the keep_hierarchy attribute are not counted\0A\00", align 1
@.str.13 = private unnamed_addr constant [82 x i8] c"        towards the upper module's cost. This applies to both when the attribute\0A\00", align 1
@.str.14 = private unnamed_addr constant [56 x i8] c"        was added by this command or was pre-existing.\0A\00", align 1

; Function Attrs: mustprogress uwtable
define internal void @_ZN12_GLOBAL__N_117KeepHierarchyPass4helpEv(ptr noundef nonnull align 8 dereferenceable(104) %0) unnamed_addr #4 align 2 {
  %2 = alloca ptr, align 8
  store ptr %0, ptr %2, align 8, !tbaa !6
  call void (ptr, ...) @_ZN5Yosys3logEPKcz(ptr noundef @.str.4)
  call void (ptr, ...) @_ZN5Yosys3logEPKcz(ptr noundef @.str.5)
  call void (ptr, ...) @_ZN5Yosys3logEPKcz(ptr noundef @.str.4)
  call void (ptr, ...) @_ZN5Yosys3logEPKcz(ptr noundef @.str.6)
  call void (ptr, ...) @_ZN5Yosys3logEPKcz(ptr noundef @.str.4)
  call void (ptr, ...) @_ZN5Yosys3logEPKcz(ptr noundef @.str.7)
  call void (ptr, ...) @_ZN5Yosys3logEPKcz(ptr noundef @.str.8)
  call void (ptr, ...) @_ZN5Yosys3logEPKcz(ptr noundef @.str.9)
  call void (ptr, ...) @_ZN5Yosys3logEPKcz(ptr noundef @.str.10)
  call void (ptr, ...) @_ZN5Yosys3logEPKcz(ptr noundef @.str.4)
  call void (ptr, ...) @_ZN5Yosys3logEPKcz(ptr noundef @.str.11)
  call void (ptr, ...) @_ZN5Yosys3logEPKcz(ptr noundef @.str.12)
  call void (ptr, ...) @_ZN5Yosys3logEPKcz(ptr noundef @.str.13)
  call void (ptr, ...) @_ZN5Yosys3logEPKcz(ptr noundef @.str.14)
  call void (ptr, ...) @_ZN5Yosys3logEPKcz(ptr noundef @.str.4)
  ret void
}